; ModuleID = 'source-C-CXX/49/1119.c'
source_filename = "source-C-CXX/49/1119.c"
target datalayout = "e-m:e-p270:32:32-p271:32:32-p272:64:64-i64:64-f80:128-n8:16:32:64-S128"
target triple = "x86_64-pc-linux-gnu"

@.str = private unnamed_addr constant [3 x i8] c"%d\00", align 1
@.str.1 = private unnamed_addr constant [4 x i8] c"%d\0A\00", align 1

; Function Attrs: nofree nounwind sspstrong uwtable
define dso_local i32 @main() local_unnamed_addr #0 {
  %1 = alloca i32, align 4
  %2 = bitcast i32* %1 to i8*
  call void @llvm.lifetime.start.p0i8(i64 4, i8* nonnull %2) #3
  %3 = call i32 (i8*, ...) @__isoc99_scanf(i8* getelementptr inbounds ([3 x i8], [3 x i8]* @.str, i64 0, i64 0), i32* nonnull %1)
  %4 = load i32, i32* %1, align 4, !tbaa !5
  %5 = add nsw i32 %4, 12
  store i32 %5, i32* %1, align 4, !tbaa !5
  br label %6

6:                                                ; preds = %0, %31
  %7 = phi i32 [ %5, %0 ], [ %32, %31 ]
  %8 = phi i32 [ 1, %0 ], [ %33, %31 ]
  %9 = srem i32 %7, 7
  %10 = icmp eq i32 %9, 5
  br i1 %10, label %11, label %13

11:                                               ; preds = %6
  %12 = call i32 (i8*, ...) @printf(i8* nonnull dereferenceable(1) getelementptr inbounds ([4 x i8], [4 x i8]* @.str.1, i64 0, i64 0), i32 %8)
  br label %13

13:                                               ; preds = %11, %6
  %14 = and i32 %8, 2147483641
  %15 = icmp eq i32 %14, 1
  %16 = and i32 %8, 2147483645
  %17 = icmp eq i32 %16, 8
  %18 = or i1 %17, %15
  %19 = icmp eq i32 %8, 12
  %20 = select i1 %18, i1 true, i1 %19
  br i1 %20, label %21, label %24

21:                                               ; preds = %13
  %22 = load i32, i32* %1, align 4, !tbaa !5
  %23 = add nsw i32 %22, 31
  store i32 %23, i32* %1, align 4, !tbaa !5
  br label %31

24:                                               ; preds = %13
  switch i32 %16, label %28 [
    i32 9, label %25
    i32 4, label %25
  ]

25:                                               ; preds = %24, %24
  %26 = load i32, i32* %1, align 4, !tbaa !5
  %27 = add nsw i32 %26, 30
  store i32 %27, i32* %1, align 4, !tbaa !5
  br label %31

28:                                               ; preds = %24
  %29 = load i32, i32* %1, align 4, !tbaa !5
  %30 = add nsw i32 %29, 28
  store i32 %30, i32* %1, align 4, !tbaa !5
  br label %31

31:                                               ; preds = %21, %28, %25
  %32 = phi i32 [ %23, %21 ], [ %30, %28 ], [ %27, %25 ]
  %33 = add nuw nsw i32 %8, 1
  %34 = icmp eq i32 %33, 13
  br i1 %34, label %35, label %6, !llvm.loop !9

35:                                               ; preds = %31
  call void @llvm.lifetime.end.p0i8(i64 4, i8* nonnull %2) #3
  ret i32 0
}

; Function Attrs: argmemonly mustprogress nofree nosync nounwind willreturn
declare void @llvm.lifetime.start.p0i8(i64 immarg, i8* nocapture) #1

; Function Attrs: nofree nounwind
declare noundef i32 @__isoc99_scanf(i8* nocapture noundef readonly, ...) local_unnamed_addr #2

; Function Attrs: nofree nounwind
declare noundef i32 @printf(i8* nocapture noundef readonly, ...) local_unnamed_addr #2

; Function Attrs: argmemonly mustprogress nofree nosync nounwind willreturn
declare void @llvm.lifetime.end.p0i8(i64 immarg, i8* nocapture) #1


!llvm.module.flags = !{!0, !1, !2, !3}
!llvm.ident = !{!4}

!0 = !{i32 1, !"wchar_size", i32 4}
!1 = !{i32 7, !"PIC Level", i32 2}
!2 = !{i32 7, !"PIE Level", i32 2}
!3 = !{i32 7, !"uwtable", i32 1}
!4 = !{!"clang version 13.0.0"}
!5 = !{!6, !6, i64 0}
!6 = !{!"int", !7, i64 0}
!7 = !{!"omnipotent char", !8, i64 0}
!8 = !{!"Simple C/C++ TBAA"}
!9 = distinct !{!9, !10}
!10 = !{!"llvm.loop.mustprogress"}
